(lp1
(lp2
I240
aI0
aI0
aa(lp3
I-1
aI-1
aI-1
aa(lp4
I-1
aI-1
aI-1
aa(lp5
I-1
aI-1
aI-1
aa(lp6
I143
aI0
aI0
aa(lp7
I-1
aI-1
aI-1
aa(lp8
I-1
aI-1
aI-1
aa(lp9
I-1
aI-1
aI-1
aa(lp10
I0
aI0
aI0
aa(lp11
I0
aI0
aI0
aa(lp12
I0
aI0
aI0
aa(lp13
I0
aI0
aI0
aa.